target datalayout = "e-m:e-p270:32:32-p271:32:32-p272:64:64-i64:64-i128:128-f80:128-n8:16:32:64-S128"
target triple = "x86_64-pc-linux-gnu"

%"class.ue2::RoseInstruction" = type { ptr }
%"class.ue2::RoseInstrCheckLitEarly" = type { %"class.ue2::RoseInstrBaseOneTarget.96", i32, ptr }
%"class.ue2::RoseInstrBaseOneTarget.96" = type { %"class.ue2::RoseInstrBase.97" }
%"class.ue2::RoseInstrBase.97" = type { %"class.ue2::RoseInstruction" }
%struct.ROSE_STRUCT_CHECK_LIT_EARLY = type { i8, i32, i32 }

@_ZTIN3ue218ResourceLimitErrorE = external constant ptr

; Function Attrs: mustprogress uwtable
define linkonce_odr hidden noundef zeroext i8 @_ZN3ue211verify_castIh19RoseInstructionCodeEET_T0_(i32 noundef %0) #5 comdat personality ptr @__gxx_personality_v0 {
  %2 = alloca i32, align 4
  %3 = alloca i8, align 1
  %4 = alloca ptr, align 8
  %5 = alloca i32, align 4
  store i32 %0, ptr %2, align 4
  call void @llvm.lifetime.start.p0(i64 1, ptr %3) #18
  %6 = load i32, ptr %2, align 4
  %7 = trunc i32 %6 to i8
  store i8 %7, ptr %3, align 1
  %8 = load i8, ptr %3, align 1
  %9 = zext i8 %8 to i32
  %10 = load i32, ptr %2, align 4
  %11 = icmp ne i32 %9, %10
  br i1 %11, label %12, label %19

12:                                               ; preds = %1
  %13 = call ptr @__cxa_allocate_exception(i64 48) #18
  invoke void @_ZN3ue218ResourceLimitErrorC1Ev(ptr noundef nonnull align 8 dereferenceable(48) %13)
          to label %14 unwind label %15

14:                                               ; preds = %12
  call void @__cxa_throw(ptr %13, ptr @_ZTIN3ue218ResourceLimitErrorE, ptr @_ZN3ue218ResourceLimitErrorD1Ev) #20
  unreachable

15:                                               ; preds = %12
  %16 = landingpad { ptr, i32 }
          cleanup
  %17 = extractvalue { ptr, i32 } %16, 0
  store ptr %17, ptr %4, align 8
  %18 = extractvalue { ptr, i32 } %16, 1
  store i32 %18, ptr %5, align 4
  call void @__cxa_free_exception(ptr %13) #18
  call void @llvm.lifetime.end.p0(i64 1, ptr %3) #18
  br label %21

19:                                               ; preds = %1
  %20 = load i8, ptr %3, align 1
  call void @llvm.lifetime.end.p0(i64 1, ptr %3) #18
  ret i8 %20

21:                                               ; preds = %15
  %22 = load ptr, ptr %4, align 8
  %23 = load i32, ptr %5, align 4
  %24 = insertvalue { ptr, i32 } poison, ptr %22, 0
  %25 = insertvalue { ptr, i32 } %24, i32 %23, 1
  resume { ptr, i32 } %25
}

; Function Attrs: mustprogress uwtable
define linkonce_odr hidden noundef zeroext i8 @_ZN3ue29verify_u8I19RoseInstructionCodeEEhT_(i32 noundef %0) #5 comdat {
  %2 = alloca i32, align 4
  store i32 %0, ptr %2, align 4
  %3 = load i32, ptr %2, align 4
  %4 = call noundef zeroext i8 @_ZN3ue211verify_castIh19RoseInstructionCodeEET_T0_(i32 noundef %3)
  ret i8 %4
}

; Function Attrs: mustprogress uwtable
define linkonce_odr hidden void @_ZNK3ue213RoseInstrBaseIL19RoseInstructionCode2E27ROSE_STRUCT_CHECK_LIT_EARLYNS_22RoseInstrCheckLitEarlyEE5writeEPvRNS_14RoseEngineBlobERKSt13unordered_mapIPKNS_15RoseInstructionEjSt4hashISB_ESt8equal_toISB_ESaISt4pairIKSB_jEEE(ptr noundef nonnull align 8 dereferenceable(8) %0, ptr noundef %1, ptr noundef nonnull align 8 dereferenceable(256) %2, ptr noundef nonnull align 8 dereferenceable(56) %3) unnamed_addr #5 comdat align 2 {
  %5 = alloca ptr, align 8
  %6 = alloca ptr, align 8
  %7 = alloca ptr, align 8
  %8 = alloca ptr, align 8
  %9 = alloca ptr, align 8
  store ptr %0, ptr %5, align 8
  store ptr %1, ptr %6, align 8
  store ptr %2, ptr %7, align 8
  store ptr %3, ptr %8, align 8
  call void @llvm.lifetime.start.p0(i64 8, ptr %9) #18
  %10 = load ptr, ptr %6, align 8
  store ptr %10, ptr %9, align 8
  %11 = load ptr, ptr %9, align 8
  call void @llvm.memset.p0.i64(ptr align 4 %11, i8 0, i64 12, i1 false)
  %12 = call noundef zeroext i8 @_ZN3ue29verify_u8I19RoseInstructionCodeEEhT_(i32 noundef 2)
  %13 = load ptr, ptr %9, align 8
  %14 = getelementptr inbounds nuw %struct.ROSE_STRUCT_CHECK_LIT_EARLY, ptr %13, i32 0, i32 0
  store i8 %12, ptr %14, align 4
  call void @llvm.lifetime.end.p0(i64 8, ptr %9) #18
  ret void
}

; Function Attrs: mustprogress uwtable
define hidden void @_ZNK3ue222RoseInstrCheckLitEarly5writeEPvRNS_14RoseEngineBlobERKSt13unordered_mapIPKNS_15RoseInstructionEjSt4hashIS7_ESt8equal_toIS7_ESaISt4pairIKS7_jEEE(ptr noundef nonnull align 8 dereferenceable(24) %0, ptr noundef %1, ptr noundef nonnull align 8 dereferenceable(256) %2, ptr noundef nonnull align 8 dereferenceable(56) %3) unnamed_addr #5 align 2 {
  %5 = alloca ptr, align 8
  %6 = alloca ptr, align 8
  %7 = alloca ptr, align 8
  %8 = alloca ptr, align 8
  %9 = alloca ptr, align 8
  store ptr %0, ptr %5, align 8
  store ptr %1, ptr %6, align 8
  store ptr %2, ptr %7, align 8
  store ptr %3, ptr %8, align 8
  %10 = load ptr, ptr %5, align 8
  %11 = load ptr, ptr %6, align 8
  %12 = load ptr, ptr %7, align 8
  %13 = load ptr, ptr %8, align 8
  call void @_ZNK3ue213RoseInstrBaseIL19RoseInstructionCode2E27ROSE_STRUCT_CHECK_LIT_EARLYNS_22RoseInstrCheckLitEarlyEE5writeEPvRNS_14RoseEngineBlobERKSt13unordered_mapIPKNS_15RoseInstructionEjSt4hashISB_ESt8equal_toISB_ESaISt4pairIKSB_jEEE(ptr noundef nonnull align 8 dereferenceable(8) %10, ptr noundef %11, ptr noundef nonnull align 8 dereferenceable(256) %12, ptr noundef nonnull align 8 dereferenceable(56) %13)
  call void @llvm.lifetime.start.p0(i64 8, ptr %9) #18
  %14 = load ptr, ptr %6, align 8
  store ptr %14, ptr %9, align 8
  %15 = getelementptr inbounds nuw %"class.ue2::RoseInstrCheckLitEarly", ptr %10, i32 0, i32 1
  %16 = load i32, ptr %15, align 8
  %17 = load ptr, ptr %9, align 8
  %18 = getelementptr inbounds nuw %struct.ROSE_STRUCT_CHECK_LIT_EARLY, ptr %17, i32 0, i32 1
  store i32 %16, ptr %18, align 4
  %19 = load ptr, ptr %8, align 8
  %20 = getelementptr inbounds nuw %"class.ue2::RoseInstrCheckLitEarly", ptr %10, i32 0, i32 2
  %21 = load ptr, ptr %20, align 8
  %22 = call noundef i32 @_ZN3ue2L9calc_jumpERKSt13unordered_mapIPKNS_15RoseInstructionEjSt4hashIS3_ESt8equal_toIS3_ESaISt4pairIKS3_jEEES3_S3_(ptr noundef nonnull align 8 dereferenceable(56) %19, ptr noundef %10, ptr noundef %21)
  %23 = load ptr, ptr %9, align 8
  %24 = getelementptr inbounds nuw %struct.ROSE_STRUCT_CHECK_LIT_EARLY, ptr %23, i32 0, i32 2
  store i32 %22, ptr %24, align 4
  call void @llvm.lifetime.end.p0(i64 8, ptr %9) #18
  ret void
}