; Function Attrs: mustprogress uwtable
define hidden void @_ZNK3ue222RoseInstrCheckLitEarly5writeEPvRNS_14RoseEngineBlobERKSt13unordered_mapIPKNS_15RoseInstructionEjSt4hashIS7_ESt8equal_toIS7_ESaISt4pairIKS7_jEEE(ptr noundef nonnull align 8 dereferenceable(24) %0, ptr noundef writeonly captures(none) initializes((0, 12)) %1, ptr nonnull readnone align 8 captures(none) %2, ptr noundef nonnull readonly align 8 captures(none) dereferenceable(56) %3) unnamed_addr #5 align 2 personality ptr @__gxx_personality_v0 {
  tail call void @llvm.memset.p0.i64(ptr noundef nonnull align 4 dereferenceable(12) %1, i8 0, i64 12, i1 false)
  store i8 2, ptr %1, align 4
  %5 = getelementptr inbounds nuw i8, ptr %0, i64 8
  %6 = load i32, ptr %5, align 8
  %7 = getelementptr inbounds nuw i8, ptr %1, i64 4
  store i32 %6, ptr %7, align 4
  %8 = getelementptr inbounds nuw i8, ptr %0, i64 16
  %9 = load ptr, ptr %8, align 8
  %10 = tail call fastcc noundef i32 @_ZN3ue2L9calc_jumpERKSt13unordered_mapIPKNS_15RoseInstructionEjSt4hashIS3_ESt8equal_toIS3_ESaISt4pairIKS3_jEEES3_S3_(ptr noundef nonnull align 8 dereferenceable(56) %3, ptr noundef %0, ptr noundef %9)
  %11 = getelementptr inbounds nuw i8, ptr %1, i64 8
  store i32 %10, ptr %11, align 4
  ret void
}